target datalayout = "e-m:e-p270:32:32-p271:32:32-p272:64:64-i64:64-i128:128-f80:128-n8:16:32:64-S128"
target triple = "x86_64-unknown-linux-gnu"

%class.symbol = type { ptr }
%class.cmd = type { ptr, %class.symbol, i32, i32 }
%class.builtin_cmd = type { %class.cmd, ptr, ptr }
%class.help_cmd = type { %class.cmd, %class.svector.47 }
%class.svector.47 = type { %class.vector.48 }
%class.vector.48 = type { ptr }
%class.get_model_cmd = type <{ %class.cmd, i32, [4 x i8] }>
%class.declare_map_cmd = type <{ %class.cmd, %class.symbol, %class.symbol, %class.ptr_vector.63, ptr, i32, [4 x i8] }>
%class.ptr_vector.63 = type { %class.vector.64 }
%class.vector.64 = type { ptr }

@.str.32 = private unnamed_addr constant [6 x i8] c"reset\00", align 1
@.str.33 = private unnamed_addr constant [65 x i8] c"reset the shell (all declarations and assertions will be erased)\00", align 1
@.str.34 = private unnamed_addr constant [9 x i8] c"simplify\00", align 1
@.str.149 = private unnamed_addr constant [5 x i8] c"help\00", align 1
@.str.159 = private unnamed_addr constant [8 x i8] c"display\00", align 1
@.str.161 = private unnamed_addr constant [10 x i8] c"get-model\00", align 1
@.str.164 = private unnamed_addr constant [5 x i8] c"echo\00", align 1
@.str.167 = private unnamed_addr constant [7 x i8] c"labels\00", align 1
@.str.171 = private unnamed_addr constant [12 x i8] c"declare-map\00", align 1
@.str.172 = private unnamed_addr constant [6 x i8] c"Array\00", align 1

; Function Attrs: mustprogress nounwind uwtable
define linkonce_odr hidden void @_ZN6vectorIP4sortLb0EjEC2Ev(ptr noundef nonnull align 8 dereferenceable(8) %this) unnamed_addr #5 comdat align 2 {
entry:
  %this.addr = alloca ptr, align 8
  store ptr %this, ptr %this.addr, align 8
  %this1 = load ptr, ptr %this.addr, align 8
  %m_data = getelementptr inbounds %class.vector.64, ptr %this1, i32 0, i32 0
  store ptr null, ptr %m_data, align 8
  ret void
}

; Function Attrs: mustprogress nounwind uwtable
define linkonce_odr hidden void @_ZN6vectorI6symbolLb0EjEC2Ev(ptr noundef nonnull align 8 dereferenceable(8) %this) unnamed_addr #5 comdat align 2 {
entry:
  %this.addr = alloca ptr, align 8
  store ptr %this, ptr %this.addr, align 8
  %this1 = load ptr, ptr %this.addr, align 8
  %m_data = getelementptr inbounds %class.vector.48, ptr %this1, i32 0, i32 0
  store ptr null, ptr %m_data, align 8
  ret void
}

; Function Attrs: mustprogress nounwind uwtable
define linkonce_odr hidden void @_ZN10ptr_vectorI4sortEC2Ev(ptr noundef nonnull align 8 dereferenceable(8) %this) unnamed_addr #5 comdat align 2 {
entry:
  %this.addr = alloca ptr, align 8
  store ptr %this, ptr %this.addr, align 8
  %this1 = load ptr, ptr %this.addr, align 8
  %0 = getelementptr inbounds i8, ptr %this1, i64 0
  call void @llvm.memset.p0.i64(ptr align 8 %0, i8 0, i64 8, i1 false)
  call void @_ZN6vectorIP4sortLb0EjEC2Ev(ptr noundef nonnull align 8 dereferenceable(8) %this1) #3
  ret void
}

; Function Attrs: mustprogress nounwind uwtable
define linkonce_odr hidden void @_ZN6symbolC2Ev(ptr noundef nonnull align 8 dereferenceable(8) %this) unnamed_addr #5 comdat align 2 {
entry:
  %this.addr = alloca ptr, align 8
  store ptr %this, ptr %this.addr, align 8
  %this1 = load ptr, ptr %this.addr, align 8
  %m_data = getelementptr inbounds %class.symbol, ptr %this1, i32 0, i32 0
  store ptr null, ptr %m_data, align 8
  ret void
}

; Function Attrs: mustprogress nounwind uwtable
define linkonce_odr hidden void @_ZN3cmdD2Ev(ptr noundef nonnull align 8 dereferenceable(24) %this) unnamed_addr #5 comdat align 2 {
entry:
  %this.addr = alloca ptr, align 8
  store ptr %this, ptr %this.addr, align 8
  ret void
}

; Function Attrs: mustprogress nounwind uwtable
define linkonce_odr hidden void @_ZN7svectorI6symboljEC2Ev(ptr noundef nonnull align 8 dereferenceable(8) %this) unnamed_addr #5 comdat align 2 {
entry:
  %this.addr = alloca ptr, align 8
  store ptr %this, ptr %this.addr, align 8
  %this1 = load ptr, ptr %this.addr, align 8
  %0 = getelementptr inbounds i8, ptr %this1, i64 0
  call void @llvm.memset.p0.i64(ptr align 8 %0, i8 0, i64 8, i1 false)
  call void @_ZN6vectorI6symbolLb0EjEC2Ev(ptr noundef nonnull align 8 dereferenceable(8) %this1) #3
  ret void
}

; Function Attrs: mustprogress uwtable
define linkonce_odr hidden void @_ZN3cmdC2EPKc(ptr noundef nonnull align 8 dereferenceable(24) %this, ptr noundef %n) unnamed_addr #4 comdat align 2 {
entry:
  %this.addr = alloca ptr, align 8
  %n.addr = alloca ptr, align 8
  store ptr %this, ptr %this.addr, align 8
  store ptr %n, ptr %n.addr, align 8
  %this1 = load ptr, ptr %this.addr, align 8
  store ptr getelementptr inbounds ({ [30 x ptr] }, ptr @_ZTV3cmd, i32 0, i32 0, i32 2), ptr %this1, align 8
  %m_name = getelementptr inbounds %class.cmd, ptr %this1, i32 0, i32 1
  %0 = load ptr, ptr %n.addr, align 8
  call void @_ZN6symbolC1EPKc(ptr noundef nonnull align 8 dereferenceable(8) %m_name, ptr noundef %0)
  %m_line = getelementptr inbounds %class.cmd, ptr %this1, i32 0, i32 2
  store i32 0, ptr %m_line, align 8
  %m_pos = getelementptr inbounds %class.cmd, ptr %this1, i32 0, i32 3
  store i32 0, ptr %m_pos, align 4
  ret void
}

; Function Attrs: mustprogress uwtable
define linkonce_odr hidden void @_ZN11builtin_cmdC2EPKcS1_S1_(ptr noundef nonnull align 8 dereferenceable(40) %this, ptr noundef %name, ptr noundef %usage, ptr noundef %descr) unnamed_addr #4 comdat align 2 {
entry:
  %this.addr = alloca ptr, align 8
  %name.addr = alloca ptr, align 8
  %usage.addr = alloca ptr, align 8
  %descr.addr = alloca ptr, align 8
  store ptr %this, ptr %this.addr, align 8
  store ptr %name, ptr %name.addr, align 8
  store ptr %usage, ptr %usage.addr, align 8
  store ptr %descr, ptr %descr.addr, align 8
  %this1 = load ptr, ptr %this.addr, align 8
  %0 = load ptr, ptr %name.addr, align 8
  call void @_ZN3cmdC2EPKc(ptr noundef nonnull align 8 dereferenceable(24) %this1, ptr noundef %0)
  store ptr getelementptr inbounds ({ [30 x ptr] }, ptr @_ZTV11builtin_cmd, i32 0, i32 0, i32 2), ptr %this1, align 8
  %m_usage = getelementptr inbounds %class.builtin_cmd, ptr %this1, i32 0, i32 1
  %1 = load ptr, ptr %usage.addr, align 8
  store ptr %1, ptr %m_usage, align 8
  %m_descr = getelementptr inbounds %class.builtin_cmd, ptr %this1, i32 0, i32 2
  %2 = load ptr, ptr %descr.addr, align 8
  store ptr %2, ptr %m_descr, align 8
  ret void
}

; Function Attrs: mustprogress uwtable
define linkonce_odr hidden void @_ZN15declare_map_cmdC2Ev(ptr noundef nonnull align 8 dereferenceable(60) %this) unnamed_addr #4 comdat align 2 personality ptr @__gxx_personality_v0 {
entry:
  %this.addr = alloca ptr, align 8
  %exn.slot = alloca ptr, align 8
  %ehselector.slot = alloca i32, align 4
  store ptr %this, ptr %this.addr, align 8
  %this1 = load ptr, ptr %this.addr, align 8
  call void @_ZN3cmdC2EPKc(ptr noundef nonnull align 8 dereferenceable(24) %this1, ptr noundef @.str.171)
  store ptr getelementptr inbounds ({ [30 x ptr] }, ptr @_ZTV15declare_map_cmd, i32 0, i32 0, i32 2), ptr %this1, align 8
  %m_array_sort = getelementptr inbounds %class.declare_map_cmd, ptr %this1, i32 0, i32 1
  invoke void @_ZN6symbolC1EPKc(ptr noundef nonnull align 8 dereferenceable(8) %m_array_sort, ptr noundef @.str.172)
          to label %invoke.cont unwind label %lpad

invoke.cont:                                      ; preds = %entry
  %m_name = getelementptr inbounds %class.declare_map_cmd, ptr %this1, i32 0, i32 2
  invoke void @_ZN6symbolC2Ev(ptr noundef nonnull align 8 dereferenceable(8) %m_name)
          to label %invoke.cont2 unwind label %lpad

invoke.cont2:                                     ; preds = %invoke.cont
  %m_domain = getelementptr inbounds %class.declare_map_cmd, ptr %this1, i32 0, i32 3
  invoke void @_ZN10ptr_vectorI4sortEC2Ev(ptr noundef nonnull align 8 dereferenceable(8) %m_domain)
          to label %invoke.cont3 unwind label %lpad

invoke.cont3:                                     ; preds = %invoke.cont2
  %m_array_fid = getelementptr inbounds %class.declare_map_cmd, ptr %this1, i32 0, i32 5
  store i32 -1, ptr %m_array_fid, align 8
  ret void

lpad:                                             ; preds = %invoke.cont2, %invoke.cont, %entry
  %0 = landingpad { ptr, i32 }
          cleanup
  %1 = extractvalue { ptr, i32 } %0, 0
  store ptr %1, ptr %exn.slot, align 8
  %2 = extractvalue { ptr, i32 } %0, 1
  store i32 %2, ptr %ehselector.slot, align 4
  call void @_ZN3cmdD2Ev(ptr noundef nonnull align 8 dereferenceable(24) %this1) #3
  br label %eh.resume

eh.resume:                                        ; preds = %lpad
  %exn = load ptr, ptr %exn.slot, align 8
  %sel = load i32, ptr %ehselector.slot, align 4
  %lpad.val = insertvalue { ptr, i32 } poison, ptr %exn, 0
  %lpad.val4 = insertvalue { ptr, i32 } %lpad.val, i32 %sel, 1
  resume { ptr, i32 } %lpad.val4
}

; Function Attrs: mustprogress uwtable
define linkonce_odr hidden void @_ZN10labels_cmdC2Ev(ptr noundef nonnull align 8 dereferenceable(24) %this) unnamed_addr #4 comdat align 2 {
entry:
  %this.addr = alloca ptr, align 8
  store ptr %this, ptr %this.addr, align 8
  %this1 = load ptr, ptr %this.addr, align 8
  call void @_ZN3cmdC2EPKc(ptr noundef nonnull align 8 dereferenceable(24) %this1, ptr noundef @.str.167)
  store ptr getelementptr inbounds ({ [30 x ptr] }, ptr @_ZTV10labels_cmd, i32 0, i32 0, i32 2), ptr %this1, align 8
  ret void
}

; Function Attrs: mustprogress uwtable
define linkonce_odr hidden void @_ZN8echo_cmdC2Ev(ptr noundef nonnull align 8 dereferenceable(24) %this) unnamed_addr #4 comdat align 2 {
entry:
  %this.addr = alloca ptr, align 8
  store ptr %this, ptr %this.addr, align 8
  %this1 = load ptr, ptr %this.addr, align 8
  call void @_ZN3cmdC2EPKc(ptr noundef nonnull align 8 dereferenceable(24) %this1, ptr noundef @.str.164)
  store ptr getelementptr inbounds ({ [30 x ptr] }, ptr @_ZTV8echo_cmd, i32 0, i32 0, i32 2), ptr %this1, align 8
  ret void
}

; Function Attrs: mustprogress uwtable
define linkonce_odr hidden void @_ZN13get_model_cmdC2Ev(ptr noundef nonnull align 8 dereferenceable(28) %this) unnamed_addr #4 comdat align 2 {
entry:
  %this.addr = alloca ptr, align 8
  store ptr %this, ptr %this.addr, align 8
  %this1 = load ptr, ptr %this.addr, align 8
  call void @_ZN3cmdC2EPKc(ptr noundef nonnull align 8 dereferenceable(24) %this1, ptr noundef @.str.161)
  store ptr getelementptr inbounds ({ [30 x ptr] }, ptr @_ZTV13get_model_cmd, i32 0, i32 0, i32 2), ptr %this1, align 8
  %m_index = getelementptr inbounds %class.get_model_cmd, ptr %this1, i32 0, i32 1
  store i32 0, ptr %m_index, align 8
  ret void
}

; Function Attrs: mustprogress uwtable
define linkonce_odr hidden void @_ZN6pp_cmdC2Ev(ptr noundef nonnull align 8 dereferenceable(24) %this) unnamed_addr #4 comdat align 2 {
entry:
  %this.addr = alloca ptr, align 8
  store ptr %this, ptr %this.addr, align 8
  %this1 = load ptr, ptr %this.addr, align 8
  call void @_ZN3cmdC2EPKc(ptr noundef nonnull align 8 dereferenceable(24) %this1, ptr noundef @.str.159)
  store ptr getelementptr inbounds ({ [30 x ptr] }, ptr @_ZTV6pp_cmd, i32 0, i32 0, i32 2), ptr %this1, align 8
  ret void
}

; Function Attrs: mustprogress uwtable
define linkonce_odr hidden void @_ZN8help_cmdC2Ev(ptr noundef nonnull align 8 dereferenceable(32) %this) unnamed_addr #4 comdat align 2 personality ptr @__gxx_personality_v0 {
entry:
  %this.addr = alloca ptr, align 8
  %exn.slot = alloca ptr, align 8
  %ehselector.slot = alloca i32, align 4
  store ptr %this, ptr %this.addr, align 8
  %this1 = load ptr, ptr %this.addr, align 8
  call void @_ZN3cmdC2EPKc(ptr noundef nonnull align 8 dereferenceable(24) %this1, ptr noundef @.str.149)
  store ptr getelementptr inbounds ({ [30 x ptr] }, ptr @_ZTV8help_cmd, i32 0, i32 0, i32 2), ptr %this1, align 8
  %m_cmds = getelementptr inbounds %class.help_cmd, ptr %this1, i32 0, i32 1
  invoke void @_ZN7svectorI6symboljEC2Ev(ptr noundef nonnull align 8 dereferenceable(8) %m_cmds)
          to label %invoke.cont unwind label %lpad

invoke.cont:                                      ; preds = %entry
  ret void

lpad:                                             ; preds = %entry
  %0 = landingpad { ptr, i32 }
          cleanup
  %1 = extractvalue { ptr, i32 } %0, 0
  store ptr %1, ptr %exn.slot, align 8
  %2 = extractvalue { ptr, i32 } %0, 1
  store i32 %2, ptr %ehselector.slot, align 4
  call void @_ZN3cmdD2Ev(ptr noundef nonnull align 8 dereferenceable(24) %this1) #3
  br label %eh.resume

eh.resume:                                        ; preds = %lpad
  %exn = load ptr, ptr %exn.slot, align 8
  %sel = load i32, ptr %ehselector.slot, align 4
  %lpad.val = insertvalue { ptr, i32 } poison, ptr %exn, 0
  %lpad.val2 = insertvalue { ptr, i32 } %lpad.val, i32 %sel, 1
  resume { ptr, i32 } %lpad.val2
}

; Function Attrs: mustprogress uwtable
define hidden void @_Z22install_ext_basic_cmdsR11cmd_context(ptr noundef nonnull align 8 dereferenceable(872) %ctx) #4 {
entry:
  %ctx.addr = alloca ptr, align 8
  store ptr %ctx, ptr %ctx.addr, align 8
  %0 = load ptr, ptr %ctx.addr, align 8
  %call = call noalias noundef ptr @_ZN6memory8allocateEm(i64 noundef 32)
  call void @_ZN8help_cmdC2Ev(ptr noundef nonnull align 8 dereferenceable(32) %call)
  call void @_ZN11cmd_context6insertEP3cmd(ptr noundef nonnull align 8 dereferenceable(872) %0, ptr noundef %call)
  %1 = load ptr, ptr %ctx.addr, align 8
  %call1 = call noalias noundef ptr @_ZN6memory8allocateEm(i64 noundef 24)
  call void @_ZN6pp_cmdC2Ev(ptr noundef nonnull align 8 dereferenceable(24) %call1)
  call void @_ZN11cmd_context6insertEP3cmd(ptr noundef nonnull align 8 dereferenceable(872) %1, ptr noundef %call1)
  %2 = load ptr, ptr %ctx.addr, align 8
  %call2 = call noalias noundef ptr @_ZN6memory8allocateEm(i64 noundef 32)
  call void @_ZN13get_model_cmdC2Ev(ptr noundef nonnull align 8 dereferenceable(28) %call2)
  call void @_ZN11cmd_context6insertEP3cmd(ptr noundef nonnull align 8 dereferenceable(872) %2, ptr noundef %call2)
  %3 = load ptr, ptr %ctx.addr, align 8
  %call3 = call noalias noundef ptr @_ZN6memory8allocateEm(i64 noundef 24)
  call void @_ZN8echo_cmdC2Ev(ptr noundef nonnull align 8 dereferenceable(24) %call3)
  call void @_ZN11cmd_context6insertEP3cmd(ptr noundef nonnull align 8 dereferenceable(872) %3, ptr noundef %call3)
  %4 = load ptr, ptr %ctx.addr, align 8
  %call4 = call noalias noundef ptr @_ZN6memory8allocateEm(i64 noundef 24)
  call void @_ZN10labels_cmdC2Ev(ptr noundef nonnull align 8 dereferenceable(24) %call4)
  call void @_ZN11cmd_context6insertEP3cmd(ptr noundef nonnull align 8 dereferenceable(872) %4, ptr noundef %call4)
  %5 = load ptr, ptr %ctx.addr, align 8
  %call5 = call noalias noundef ptr @_ZN6memory8allocateEm(i64 noundef 64)
  call void @_ZN15declare_map_cmdC2Ev(ptr noundef nonnull align 8 dereferenceable(60) %call5)
  call void @_ZN11cmd_context6insertEP3cmd(ptr noundef nonnull align 8 dereferenceable(872) %5, ptr noundef %call5)
  %6 = load ptr, ptr %ctx.addr, align 8
  %call6 = call noalias noundef ptr @_ZN6memory8allocateEm(i64 noundef 40)
  call void @_ZN11builtin_cmdC2EPKcS1_S1_(ptr noundef nonnull align 8 dereferenceable(40) %call6, ptr noundef @.str.32, ptr noundef null, ptr noundef @.str.33)
  call void @_ZN11cmd_context6insertEP3cmd(ptr noundef nonnull align 8 dereferenceable(872) %6, ptr noundef %call6)
  %7 = load ptr, ptr %ctx.addr, align 8
  call void @_Z20install_simplify_cmdR11cmd_contextPKc(ptr noundef nonnull align 8 dereferenceable(872) %7, ptr noundef @.str.34)
  %8 = load ptr, ptr %ctx.addr, align 8
  call void @_Z16install_eval_cmdR11cmd_context(ptr noundef nonnull align 8 dereferenceable(872) %8)
  ret void
}