; Function Attrs: mustprogress uwtable
define hidden void @_Z22install_ext_basic_cmdsR11cmd_context(ptr noundef nonnull align 8 dereferenceable(872) %ctx) local_unnamed_addr #3 personality ptr @__gxx_personality_v0 {
entry:
  %call = tail call noalias noundef ptr @_ZN6memory8allocateEm(i64 noundef 32)
  store ptr getelementptr inbounds ({ [30 x ptr] }, ptr @_ZTV3cmd, i64 0, i32 0, i64 2), ptr %call, align 8
  %m_name.i.i = getelementptr inbounds i8, ptr %call, i64 8
  tail call void @_ZN6symbolC1EPKc(ptr noundef nonnull align 8 dereferenceable(8) %m_name.i.i, ptr noundef nonnull @.str.149)
  %m_line.i.i = getelementptr inbounds i8, ptr %call, i64 16
  store i32 0, ptr %m_line.i.i, align 8
  %m_pos.i.i = getelementptr inbounds i8, ptr %call, i64 20
  store i32 0, ptr %m_pos.i.i, align 4
  store ptr getelementptr inbounds ({ [30 x ptr] }, ptr @_ZTV8help_cmd, i64 0, i32 0, i64 2), ptr %call, align 8
  %m_cmds.i = getelementptr inbounds i8, ptr %call, i64 24
  store ptr null, ptr %m_cmds.i, align 8
  tail call void @_ZN11cmd_context6insertEP3cmd(ptr noundef nonnull align 8 dereferenceable(872) %ctx, ptr noundef nonnull %call)
  %call1 = tail call noalias noundef ptr @_ZN6memory8allocateEm(i64 noundef 24)
  store ptr getelementptr inbounds ({ [30 x ptr] }, ptr @_ZTV3cmd, i64 0, i32 0, i64 2), ptr %call1, align 8
  %m_name.i.i9 = getelementptr inbounds i8, ptr %call1, i64 8
  tail call void @_ZN6symbolC1EPKc(ptr noundef nonnull align 8 dereferenceable(8) %m_name.i.i9, ptr noundef nonnull @.str.159)
  %m_line.i.i10 = getelementptr inbounds i8, ptr %call1, i64 16
  store i32 0, ptr %m_line.i.i10, align 8
  %m_pos.i.i11 = getelementptr inbounds i8, ptr %call1, i64 20
  store i32 0, ptr %m_pos.i.i11, align 4
  store ptr getelementptr inbounds ({ [30 x ptr] }, ptr @_ZTV6pp_cmd, i64 0, i32 0, i64 2), ptr %call1, align 8
  tail call void @_ZN11cmd_context6insertEP3cmd(ptr noundef nonnull align 8 dereferenceable(872) %ctx, ptr noundef nonnull %call1)
  %call2 = tail call noalias noundef ptr @_ZN6memory8allocateEm(i64 noundef 32)
  store ptr getelementptr inbounds ({ [30 x ptr] }, ptr @_ZTV3cmd, i64 0, i32 0, i64 2), ptr %call2, align 8
  %m_name.i.i12 = getelementptr inbounds i8, ptr %call2, i64 8
  tail call void @_ZN6symbolC1EPKc(ptr noundef nonnull align 8 dereferenceable(8) %m_name.i.i12, ptr noundef nonnull @.str.161)
  %m_line.i.i13 = getelementptr inbounds i8, ptr %call2, i64 16
  store i32 0, ptr %m_line.i.i13, align 8
  %m_pos.i.i14 = getelementptr inbounds i8, ptr %call2, i64 20
  store i32 0, ptr %m_pos.i.i14, align 4
  store ptr getelementptr inbounds ({ [30 x ptr] }, ptr @_ZTV13get_model_cmd, i64 0, i32 0, i64 2), ptr %call2, align 8
  %m_index.i = getelementptr inbounds i8, ptr %call2, i64 24
  store i32 0, ptr %m_index.i, align 8
  tail call void @_ZN11cmd_context6insertEP3cmd(ptr noundef nonnull align 8 dereferenceable(872) %ctx, ptr noundef nonnull %call2)
  %call3 = tail call noalias noundef ptr @_ZN6memory8allocateEm(i64 noundef 24)
  store ptr getelementptr inbounds ({ [30 x ptr] }, ptr @_ZTV3cmd, i64 0, i32 0, i64 2), ptr %call3, align 8
  %m_name.i.i15 = getelementptr inbounds i8, ptr %call3, i64 8
  tail call void @_ZN6symbolC1EPKc(ptr noundef nonnull align 8 dereferenceable(8) %m_name.i.i15, ptr noundef nonnull @.str.164)
  %m_line.i.i16 = getelementptr inbounds i8, ptr %call3, i64 16
  store i32 0, ptr %m_line.i.i16, align 8
  %m_pos.i.i17 = getelementptr inbounds i8, ptr %call3, i64 20
  store i32 0, ptr %m_pos.i.i17, align 4
  store ptr getelementptr inbounds ({ [30 x ptr] }, ptr @_ZTV8echo_cmd, i64 0, i32 0, i64 2), ptr %call3, align 8
  tail call void @_ZN11cmd_context6insertEP3cmd(ptr noundef nonnull align 8 dereferenceable(872) %ctx, ptr noundef nonnull %call3)
  %call4 = tail call noalias noundef ptr @_ZN6memory8allocateEm(i64 noundef 24)
  store ptr getelementptr inbounds ({ [30 x ptr] }, ptr @_ZTV3cmd, i64 0, i32 0, i64 2), ptr %call4, align 8
  %m_name.i.i18 = getelementptr inbounds i8, ptr %call4, i64 8
  tail call void @_ZN6symbolC1EPKc(ptr noundef nonnull align 8 dereferenceable(8) %m_name.i.i18, ptr noundef nonnull @.str.167)
  %m_line.i.i19 = getelementptr inbounds i8, ptr %call4, i64 16
  store i32 0, ptr %m_line.i.i19, align 8
  %m_pos.i.i20 = getelementptr inbounds i8, ptr %call4, i64 20
  store i32 0, ptr %m_pos.i.i20, align 4
  store ptr getelementptr inbounds ({ [30 x ptr] }, ptr @_ZTV10labels_cmd, i64 0, i32 0, i64 2), ptr %call4, align 8
  tail call void @_ZN11cmd_context6insertEP3cmd(ptr noundef nonnull align 8 dereferenceable(872) %ctx, ptr noundef nonnull %call4)
  %call5 = tail call noalias noundef ptr @_ZN6memory8allocateEm(i64 noundef 64)
  store ptr getelementptr inbounds ({ [30 x ptr] }, ptr @_ZTV3cmd, i64 0, i32 0, i64 2), ptr %call5, align 8
  %m_name.i.i21 = getelementptr inbounds i8, ptr %call5, i64 8
  tail call void @_ZN6symbolC1EPKc(ptr noundef nonnull align 8 dereferenceable(8) %m_name.i.i21, ptr noundef nonnull @.str.171)
  %m_line.i.i22 = getelementptr inbounds i8, ptr %call5, i64 16
  store i32 0, ptr %m_line.i.i22, align 8
  %m_pos.i.i23 = getelementptr inbounds i8, ptr %call5, i64 20
  store i32 0, ptr %m_pos.i.i23, align 4
  store ptr getelementptr inbounds ({ [30 x ptr] }, ptr @_ZTV15declare_map_cmd, i64 0, i32 0, i64 2), ptr %call5, align 8
  %m_array_sort.i = getelementptr inbounds i8, ptr %call5, i64 24
  tail call void @_ZN6symbolC1EPKc(ptr noundef nonnull align 8 dereferenceable(8) %m_array_sort.i, ptr noundef nonnull @.str.172)
  %m_name.i = getelementptr inbounds i8, ptr %call5, i64 32
  %m_array_fid.i = getelementptr inbounds i8, ptr %call5, i64 56
  tail call void @llvm.memset.p0.i64(ptr noundef nonnull align 8 dereferenceable(16) %m_name.i, i8 0, i64 16, i1 false)
  store i32 -1, ptr %m_array_fid.i, align 8
  tail call void @_ZN11cmd_context6insertEP3cmd(ptr noundef nonnull align 8 dereferenceable(872) %ctx, ptr noundef nonnull %call5)
  %call6 = tail call noalias noundef ptr @_ZN6memory8allocateEm(i64 noundef 40)
  store ptr getelementptr inbounds ({ [30 x ptr] }, ptr @_ZTV3cmd, i64 0, i32 0, i64 2), ptr %call6, align 8
  %m_name.i.i24 = getelementptr inbounds i8, ptr %call6, i64 8
  tail call void @_ZN6symbolC1EPKc(ptr noundef nonnull align 8 dereferenceable(8) %m_name.i.i24, ptr noundef nonnull @.str.32)
  %m_line.i.i25 = getelementptr inbounds i8, ptr %call6, i64 16
  store i32 0, ptr %m_line.i.i25, align 8
  %m_pos.i.i26 = getelementptr inbounds i8, ptr %call6, i64 20
  store i32 0, ptr %m_pos.i.i26, align 4
  store ptr getelementptr inbounds ({ [30 x ptr] }, ptr @_ZTV11builtin_cmd, i64 0, i32 0, i64 2), ptr %call6, align 8
  %m_usage.i = getelementptr inbounds i8, ptr %call6, i64 24
  store ptr null, ptr %m_usage.i, align 8
  %m_descr.i = getelementptr inbounds i8, ptr %call6, i64 32
  store ptr @.str.33, ptr %m_descr.i, align 8
  tail call void @_ZN11cmd_context6insertEP3cmd(ptr noundef nonnull align 8 dereferenceable(872) %ctx, ptr noundef nonnull %call6)
  tail call void @_Z20install_simplify_cmdR11cmd_contextPKc(ptr noundef nonnull align 8 dereferenceable(872) %ctx, ptr noundef nonnull @.str.34)
  tail call void @_Z16install_eval_cmdR11cmd_context(ptr noundef nonnull align 8 dereferenceable(872) %ctx)
  ret void
}